target datalayout = "e-m:e-p270:32:32-p271:32:32-p272:64:64-i64:64-i128:128-f80:128-n8:16:32:64-S128"
target triple = "x86_64-pc-linux-gnu"

%"class.folly::test::ThreadTimestamps" = type { %"class.std::vector" }
%"class.std::vector" = type { %"struct.std::_Vector_base" }
%"struct.std::_Vector_base" = type { %"struct.std::_Vector_base<folly::test::DSchedTimestamp, std::allocator<folly::test::DSchedTimestamp>>::_Vector_impl" }
%"struct.std::_Vector_base<folly::test::DSchedTimestamp, std::allocator<folly::test::DSchedTimestamp>>::_Vector_impl" = type { %"struct.std::_Vector_base<folly::test::DSchedTimestamp, std::allocator<folly::test::DSchedTimestamp>>::_Vector_impl_data" }
%"struct.std::_Vector_base<folly::test::DSchedTimestamp, std::allocator<folly::test::DSchedTimestamp>>::_Vector_impl_data" = type { ptr, ptr, ptr }
%"class.folly::test::DSchedTimestamp" = type { i64 }

; Function Attrs: mustprogress nounwind uwtable
define linkonce_odr noundef zeroext i1 @_ZNK5folly4test15DSchedTimestamp17atLeastAsRecentAsERKS1_(ptr noundef nonnull align 8 dereferenceable(8) %0, ptr noundef nonnull align 8 dereferenceable(8) %1) #1 comdat align 2 {
  %3 = alloca ptr, align 8
  %4 = alloca ptr, align 8
  store ptr %0, ptr %3, align 8, !tbaa !100
  store ptr %1, ptr %4, align 8, !tbaa !100
  %5 = load ptr, ptr %3, align 8
  %6 = getelementptr inbounds nuw %"class.folly::test::DSchedTimestamp", ptr %5, i32 0, i32 0
  %7 = load i64, ptr %6, align 8, !tbaa !101
  %8 = load ptr, ptr %4, align 8, !tbaa !100
  %9 = getelementptr inbounds nuw %"class.folly::test::DSchedTimestamp", ptr %8, i32 0, i32 0
  %10 = load i64, ptr %9, align 8, !tbaa !101
  %11 = icmp uge i64 %7, %10
  ret i1 %11
}

; Function Attrs: mustprogress nounwind uwtable
define linkonce_odr noundef zeroext i1 @_ZNK5folly4test15DSchedTimestamp11initializedEv(ptr noundef nonnull align 8 dereferenceable(8) %0) #1 comdat align 2 {
  %2 = alloca ptr, align 8
  store ptr %0, ptr %2, align 8, !tbaa !100
  %3 = load ptr, ptr %2, align 8
  %4 = getelementptr inbounds nuw %"class.folly::test::DSchedTimestamp", ptr %3, i32 0, i32 0
  %5 = load i64, ptr %4, align 8, !tbaa !101
  %6 = icmp ugt i64 %5, 0
  ret i1 %6
}

; Function Attrs: mustprogress nounwind uwtable
define linkonce_odr noundef nonnull align 8 dereferenceable(8) ptr @_ZNKSt6vectorIN5folly4test15DSchedTimestampESaIS2_EEixEm(ptr noundef nonnull align 8 dereferenceable(24) %0, i64 noundef %1) #1 comdat align 2 {
  %3 = alloca ptr, align 8
  %4 = alloca i64, align 8
  store ptr %0, ptr %3, align 8, !tbaa !94
  store i64 %1, ptr %4, align 8, !tbaa !83
  %5 = load ptr, ptr %3, align 8
  %6 = getelementptr inbounds nuw %"struct.std::_Vector_base", ptr %5, i32 0, i32 0
  %7 = getelementptr inbounds nuw %"struct.std::_Vector_base<folly::test::DSchedTimestamp, std::allocator<folly::test::DSchedTimestamp>>::_Vector_impl_data", ptr %6, i32 0, i32 0
  %8 = load ptr, ptr %7, align 8, !tbaa !99
  %9 = load i64, ptr %4, align 8, !tbaa !83
  %10 = getelementptr inbounds nuw %"class.folly::test::DSchedTimestamp", ptr %8, i64 %9
  ret ptr %10
}

; Function Attrs: mustprogress nounwind uwtable
define linkonce_odr noundef i64 @_ZNKSt6vectorIN5folly4test15DSchedTimestampESaIS2_EE4sizeEv(ptr noundef nonnull align 8 dereferenceable(24) %0) #1 comdat align 2 {
  %2 = alloca ptr, align 8
  store ptr %0, ptr %2, align 8, !tbaa !94
  %3 = load ptr, ptr %2, align 8
  %4 = getelementptr inbounds nuw %"struct.std::_Vector_base", ptr %3, i32 0, i32 0
  %5 = getelementptr inbounds nuw %"struct.std::_Vector_base<folly::test::DSchedTimestamp, std::allocator<folly::test::DSchedTimestamp>>::_Vector_impl_data", ptr %4, i32 0, i32 1
  %6 = load ptr, ptr %5, align 8, !tbaa !96
  %7 = getelementptr inbounds nuw %"struct.std::_Vector_base", ptr %3, i32 0, i32 0
  %8 = getelementptr inbounds nuw %"struct.std::_Vector_base<folly::test::DSchedTimestamp, std::allocator<folly::test::DSchedTimestamp>>::_Vector_impl_data", ptr %7, i32 0, i32 0
  %9 = load ptr, ptr %8, align 8, !tbaa !99
  %10 = ptrtoint ptr %6 to i64
  %11 = ptrtoint ptr %9 to i64
  %12 = sub i64 %10, %11
  %13 = sdiv exact i64 %12, 8
  ret i64 %13
}

; Function Attrs: mustprogress nounwind uwtable
define noundef zeroext i1 @_ZNK5folly4test16ThreadTimestamps20atLeastAsRecentAsAnyERKS1_(ptr noundef nonnull align 8 dereferenceable(24) %0, ptr noundef nonnull align 8 dereferenceable(24) %1) #1 align 2 {
  %3 = alloca i1, align 1
  %4 = alloca ptr, align 8
  %5 = alloca ptr, align 8
  %6 = alloca i64, align 8
  %7 = alloca i64, align 8
  %8 = alloca i32, align 4
  store ptr %0, ptr %4, align 8, !tbaa !91
  store ptr %1, ptr %5, align 8, !tbaa !91
  %9 = load ptr, ptr %4, align 8
  call void @llvm.lifetime.start.p0(i64 8, ptr %6) #2
  %10 = getelementptr inbounds nuw %"class.folly::test::ThreadTimestamps", ptr %9, i32 0, i32 0
  %11 = call noundef i64 @_ZNKSt6vectorIN5folly4test15DSchedTimestampESaIS2_EE4sizeEv(ptr noundef nonnull align 8 dereferenceable(24) %10) #2
  %12 = load ptr, ptr %5, align 8, !tbaa !91
  %13 = getelementptr inbounds nuw %"class.folly::test::ThreadTimestamps", ptr %12, i32 0, i32 0
  %14 = call noundef i64 @_ZNKSt6vectorIN5folly4test15DSchedTimestampESaIS2_EE4sizeEv(ptr noundef nonnull align 8 dereferenceable(24) %13) #2
  %15 = icmp ult i64 %11, %14
  br i1 %15, label %16, label %19

16:                                               ; preds = %2
  %17 = getelementptr inbounds nuw %"class.folly::test::ThreadTimestamps", ptr %9, i32 0, i32 0
  %18 = call noundef i64 @_ZNKSt6vectorIN5folly4test15DSchedTimestampESaIS2_EE4sizeEv(ptr noundef nonnull align 8 dereferenceable(24) %17) #2
  br label %23

19:                                               ; preds = %2
  %20 = load ptr, ptr %5, align 8, !tbaa !91
  %21 = getelementptr inbounds nuw %"class.folly::test::ThreadTimestamps", ptr %20, i32 0, i32 0
  %22 = call noundef i64 @_ZNKSt6vectorIN5folly4test15DSchedTimestampESaIS2_EE4sizeEv(ptr noundef nonnull align 8 dereferenceable(24) %21) #2
  br label %23

23:                                               ; preds = %19, %16
  %24 = phi i64 [ %18, %16 ], [ %22, %19 ]
  store i64 %24, ptr %6, align 8, !tbaa !83
  call void @llvm.lifetime.start.p0(i64 8, ptr %7) #2
  store i64 0, ptr %7, align 8, !tbaa !83
  br label %25

25:                                               ; preds = %47, %23
  %26 = load i64, ptr %7, align 8, !tbaa !83
  %27 = load i64, ptr %6, align 8, !tbaa !83
  %28 = icmp ult i64 %26, %27
  br i1 %28, label %30, label %29

29:                                               ; preds = %25
  store i32 2, ptr %8, align 4
  br label %50

30:                                               ; preds = %25
  %31 = load ptr, ptr %5, align 8, !tbaa !91
  %32 = getelementptr inbounds nuw %"class.folly::test::ThreadTimestamps", ptr %31, i32 0, i32 0
  %33 = load i64, ptr %7, align 8, !tbaa !83
  %34 = call noundef nonnull align 8 dereferenceable(8) ptr @_ZNKSt6vectorIN5folly4test15DSchedTimestampESaIS2_EEixEm(ptr noundef nonnull align 8 dereferenceable(24) %32, i64 noundef %33) #2
  %35 = call noundef zeroext i1 @_ZNK5folly4test15DSchedTimestamp11initializedEv(ptr noundef nonnull align 8 dereferenceable(8) %34)
  br i1 %35, label %36, label %46

36:                                               ; preds = %30
  %37 = getelementptr inbounds nuw %"class.folly::test::ThreadTimestamps", ptr %9, i32 0, i32 0
  %38 = load i64, ptr %7, align 8, !tbaa !83
  %39 = call noundef nonnull align 8 dereferenceable(8) ptr @_ZNKSt6vectorIN5folly4test15DSchedTimestampESaIS2_EEixEm(ptr noundef nonnull align 8 dereferenceable(24) %37, i64 noundef %38) #2
  %40 = load ptr, ptr %5, align 8, !tbaa !91
  %41 = getelementptr inbounds nuw %"class.folly::test::ThreadTimestamps", ptr %40, i32 0, i32 0
  %42 = load i64, ptr %7, align 8, !tbaa !83
  %43 = call noundef nonnull align 8 dereferenceable(8) ptr @_ZNKSt6vectorIN5folly4test15DSchedTimestampESaIS2_EEixEm(ptr noundef nonnull align 8 dereferenceable(24) %41, i64 noundef %42) #2
  %44 = call noundef zeroext i1 @_ZNK5folly4test15DSchedTimestamp17atLeastAsRecentAsERKS1_(ptr noundef nonnull align 8 dereferenceable(8) %39, ptr noundef nonnull align 8 dereferenceable(8) %43)
  br i1 %44, label %45, label %46

45:                                               ; preds = %36
  store i1 true, ptr %3, align 1
  store i32 1, ptr %8, align 4
  br label %50

46:                                               ; preds = %36, %30
  br label %47

47:                                               ; preds = %46
  %48 = load i64, ptr %7, align 8, !tbaa !83
  %49 = add i64 %48, 1
  store i64 %49, ptr %7, align 8, !tbaa !83
  br label %25, !llvm.loop !123

50:                                               ; preds = %45, %29
  call void @llvm.lifetime.end.p0(i64 8, ptr %7) #2
  %51 = load i32, ptr %8, align 4
  switch i32 %51, label %53 [
    i32 2, label %52
  ]

52:                                               ; preds = %50
  store i1 false, ptr %3, align 1
  store i32 1, ptr %8, align 4
  br label %53

53:                                               ; preds = %52, %50
  call void @llvm.lifetime.end.p0(i64 8, ptr %6) #2
  %54 = load i1, ptr %3, align 1
  ret i1 %54
}