; Function Attrs: mustprogress nofree norecurse nosync nounwind willreturn memory(read, inaccessiblemem: none) uwtable
define noundef zeroext i1 @_ZNK5folly4test16ThreadTimestamps20atLeastAsRecentAsAnyERKS1_(ptr noundef nonnull readonly align 8 captures(none) dereferenceable(24) %0, ptr noundef nonnull readonly align 8 captures(none) dereferenceable(24) %1) local_unnamed_addr #13 align 2 {
  %3 = getelementptr inbounds nuw i8, ptr %0, i64 8
  %4 = load ptr, ptr %3, align 8, !tbaa !27
  %5 = load ptr, ptr %0, align 8, !tbaa !30
  %6 = ptrtoint ptr %4 to i64
  %7 = ptrtoint ptr %5 to i64
  %8 = sub i64 %6, %7
  %9 = ashr exact i64 %8, 3
  %10 = getelementptr inbounds nuw i8, ptr %1, i64 8
  %11 = load ptr, ptr %10, align 8, !tbaa !27
  %12 = load ptr, ptr %1, align 8, !tbaa !30
  %13 = ptrtoint ptr %11 to i64
  %14 = ptrtoint ptr %12 to i64
  %15 = sub i64 %13, %14
  %16 = ashr exact i64 %15, 3
  %spec.select = tail call i64 @llvm.umin.i64(i64 %9, i64 %16)
  %.not16.not = icmp eq i64 %spec.select, 0
  br i1 %.not16.not, label %.critedge, label %.lr.ph

.lr.ph:                                           ; preds = %2, %22
  %.01217 = phi i64 [ %23, %22 ], [ 0, %2 ]
  %17 = getelementptr inbounds nuw %"class.folly::test::DSchedTimestamp", ptr %12, i64 %.01217
  %18 = load i64, ptr %17, align 8, !tbaa !32
  %.not14 = icmp eq i64 %18, 0
  br i1 %.not14, label %22, label %19

19:                                               ; preds = %.lr.ph
  %20 = getelementptr inbounds nuw %"class.folly::test::DSchedTimestamp", ptr %5, i64 %.01217
  %21 = load i64, ptr %20, align 8, !tbaa !32
  %.not15 = icmp ult i64 %21, %18
  br i1 %.not15, label %22, label %.critedge

22:                                               ; preds = %.lr.ph, %19
  %23 = add nuw i64 %.01217, 1
  %exitcond.not = icmp eq i64 %23, %spec.select
  br i1 %exitcond.not, label %.critedge, label %.lr.ph, !llvm.loop !42

.critedge:                                        ; preds = %19, %22, %2
  %.not.lcssa = phi i1 [ false, %2 ], [ false, %22 ], [ true, %19 ]
  ret i1 %.not.lcssa
}